target datalayout = "e-m:e-p270:32:32-p271:32:32-p272:64:64-i64:64-i128:128-f80:128-n8:16:32:64-S128"
target triple = "x86_64-pc-linux-gnu"

@exit_code = dso_local global i32 0, align 4
@quiet_flag = dso_local global i32 0, align 4
@stderr = external global ptr, align 8
@.str.43 = private unnamed_addr constant [5 x i8] c"ASAP\00", align 1
@.str.44 = private unnamed_addr constant [8 x i8] c"Reason=\00", align 1
@.str.45 = private unnamed_addr constant [16 x i8] c"missing reason\0A\00", align 1
@.str.46 = private unnamed_addr constant [11 x i8] c"nextstate=\00", align 1
@.str.47 = private unnamed_addr constant [15 x i8] c"missing state\0A\00", align 1
@.str.48 = private unnamed_addr constant [5 x i8] c"DOWN\00", align 1
@.str.49 = private unnamed_addr constant [7 x i8] c"RESUME\00", align 1
@.str.50 = private unnamed_addr constant [19 x i8] c"Invalid state: %s\0A\00", align 1
@.str.51 = private unnamed_addr constant [28 x i8] c"Valid states: DOWN, RESUME\0A\00", align 1
@.str.52 = private unnamed_addr constant [35 x i8] c"too many arguments for keyword:%s\0A\00", align 1
@.str.53 = private unnamed_addr constant [43 x i8] c"Missing node list. Specify ALL|<NodeList>\0A\00", align 1
@.str.54 = private unnamed_addr constant [28 x i8] c"scontrol_reboot_nodes error\00", align 1

; Function Attrs: nounwind uwtable
define dso_local void @_process_reboot_command(ptr noundef %0, i32 noundef %1, ptr noundef %2) #0 {
  %4 = alloca ptr, align 8
  %5 = alloca i32, align 4
  %6 = alloca ptr, align 8
  %7 = alloca i32, align 4
  %8 = alloca i8, align 1
  %9 = alloca ptr, align 8
  %10 = alloca i32, align 4
  %11 = alloca i32, align 4
  %12 = alloca i32, align 4
  %13 = alloca ptr, align 8
  %14 = alloca i32, align 4
  %15 = alloca i32, align 4
  %16 = alloca ptr, align 8
  %17 = alloca ptr, align 8
  store ptr %0, ptr %4, align 8
  store i32 %1, ptr %5, align 4
  store ptr %2, ptr %6, align 8
  call void @llvm.lifetime.start.p0(i64 4, ptr %7) #12
  store i32 0, ptr %7, align 4
  call void @llvm.lifetime.start.p0(i64 1, ptr %8) #12
  store i8 0, ptr %8, align 1
  call void @llvm.lifetime.start.p0(i64 8, ptr %9) #12
  store ptr null, ptr %9, align 8
  call void @llvm.lifetime.start.p0(i64 4, ptr %10) #12
  store i32 -2, ptr %10, align 4
  call void @llvm.lifetime.start.p0(i64 4, ptr %11) #12
  store i32 1, ptr %11, align 4
  %18 = load i32, ptr %5, align 4
  %19 = icmp sgt i32 %18, 1
  br i1 %19, label %20, label %167

20:                                               ; preds = %3
  call void @llvm.lifetime.start.p0(i64 4, ptr %12) #12
  store i32 1, ptr %12, align 4
  br label %21

21:                                               ; preds = %160, %20
  %22 = load i32, ptr %12, align 4
  %23 = icmp sle i32 %22, 3
  br i1 %23, label %24, label %28

24:                                               ; preds = %21
  %25 = load i32, ptr %12, align 4
  %26 = load i32, ptr %5, align 4
  %27 = icmp slt i32 %25, %26
  br label %28

28:                                               ; preds = %24, %21
  %29 = phi i1 [ false, %21 ], [ %27, %24 ]
  br i1 %29, label %30, label %163

30:                                               ; preds = %28
  %31 = load ptr, ptr %6, align 8
  %32 = load i32, ptr %12, align 4
  %33 = sext i32 %32 to i64
  %34 = getelementptr inbounds ptr, ptr %31, i64 %33
  %35 = load ptr, ptr %34, align 8
  %36 = call i32 @strcasecmp(ptr noundef %35, ptr noundef @.str.43) #15
  %37 = icmp ne i32 %36, 0
  br i1 %37, label %41, label %38

38:                                               ; preds = %30
  store i8 1, ptr %8, align 1
  %39 = load i32, ptr %11, align 4
  %40 = add nsw i32 %39, 1
  store i32 %40, ptr %11, align 4
  br label %159

41:                                               ; preds = %30
  %42 = load ptr, ptr %6, align 8
  %43 = load i32, ptr %12, align 4
  %44 = sext i32 %43 to i64
  %45 = getelementptr inbounds ptr, ptr %42, i64 %44
  %46 = load ptr, ptr %45, align 8
  %47 = call i32 @xstrncasecmp(ptr noundef %46, ptr noundef @.str.44, i64 noundef 7)
  %48 = icmp ne i32 %47, 0
  br i1 %48, label %79, label %49

49:                                               ; preds = %41
  call void @llvm.lifetime.start.p0(i64 8, ptr %13) #12
  %50 = load ptr, ptr %6, align 8
  %51 = load i32, ptr %12, align 4
  %52 = sext i32 %51 to i64
  %53 = getelementptr inbounds ptr, ptr %50, i64 %52
  %54 = load ptr, ptr %53, align 8
  %55 = call ptr @strchr(ptr noundef %54, i32 noundef 61) #15
  store ptr %55, ptr %13, align 8
  %56 = load ptr, ptr %13, align 8
  %57 = icmp ne ptr %56, null
  br i1 %57, label %58, label %63

58:                                               ; preds = %49
  %59 = load ptr, ptr %13, align 8
  %60 = getelementptr inbounds i8, ptr %59, i64 1
  %61 = load i8, ptr %60, align 1
  %62 = icmp ne i8 %61, 0
  br i1 %62, label %70, label %63

63:                                               ; preds = %58, %49
  store i32 1, ptr @exit_code, align 4
  %64 = load i32, ptr @quiet_flag, align 4
  %65 = icmp ne i32 %64, 0
  br i1 %65, label %69, label %66

66:                                               ; preds = %63
  %67 = load ptr, ptr @stderr, align 8
  %68 = call i32 (ptr, ptr, ...) @fprintf(ptr noundef %67, ptr noundef @.str.45) #12
  br label %69

69:                                               ; preds = %66, %63
  call void @slurm_xfree(ptr noundef %9)
  store i32 1, ptr %14, align 4
  br label %76

70:                                               ; preds = %58
  call void @slurm_xfree(ptr noundef %9)
  %71 = load ptr, ptr %13, align 8
  %72 = getelementptr inbounds i8, ptr %71, i64 1
  %73 = call ptr @xstrdup(ptr noundef %72)
  store ptr %73, ptr %9, align 8
  %74 = load i32, ptr %11, align 4
  %75 = add nsw i32 %74, 1
  store i32 %75, ptr %11, align 4
  store i32 0, ptr %14, align 4
  br label %76

76:                                               ; preds = %70, %69
  call void @llvm.lifetime.end.p0(i64 8, ptr %13) #12
  %77 = load i32, ptr %14, align 4
  switch i32 %77, label %164 [
    i32 0, label %78
  ]

78:                                               ; preds = %76
  br label %158

79:                                               ; preds = %41
  %80 = load ptr, ptr %6, align 8
  %81 = load i32, ptr %12, align 4
  %82 = sext i32 %81 to i64
  %83 = getelementptr inbounds ptr, ptr %80, i64 %82
  %84 = load ptr, ptr %83, align 8
  %85 = call i32 @xstrncasecmp(ptr noundef %84, ptr noundef @.str.46, i64 noundef 10)
  %86 = icmp ne i32 %85, 0
  br i1 %86, label %157, label %87

87:                                               ; preds = %79
  call void @llvm.lifetime.start.p0(i64 4, ptr %15) #12
  call void @llvm.lifetime.start.p0(i64 8, ptr %16) #12
  call void @llvm.lifetime.start.p0(i64 8, ptr %17) #12
  %88 = load ptr, ptr %6, align 8
  %89 = load i32, ptr %12, align 4
  %90 = sext i32 %89 to i64
  %91 = getelementptr inbounds ptr, ptr %88, i64 %90
  %92 = load ptr, ptr %91, align 8
  %93 = call ptr @strchr(ptr noundef %92, i32 noundef 61) #15
  store ptr %93, ptr %17, align 8
  %94 = load ptr, ptr %17, align 8
  %95 = icmp ne ptr %94, null
  br i1 %95, label %96, label %101

96:                                               ; preds = %87
  %97 = load ptr, ptr %17, align 8
  %98 = getelementptr inbounds i8, ptr %97, i64 1
  %99 = load i8, ptr %98, align 1
  %100 = icmp ne i8 %99, 0
  br i1 %100, label %108, label %101

101:                                              ; preds = %96, %87
  store i32 1, ptr @exit_code, align 4
  %102 = load i32, ptr @quiet_flag, align 4
  %103 = icmp ne i32 %102, 0
  br i1 %103, label %107, label %104

104:                                              ; preds = %101
  %105 = load ptr, ptr @stderr, align 8
  %106 = call i32 (ptr, ptr, ...) @fprintf(ptr noundef %105, ptr noundef @.str.47) #12
  br label %107

107:                                              ; preds = %104, %101
  call void @slurm_xfree(ptr noundef %9)
  store i32 1, ptr %14, align 4
  br label %154

108:                                              ; preds = %96
  %109 = load ptr, ptr %17, align 8
  %110 = getelementptr inbounds i8, ptr %109, i64 1
  %111 = call ptr @xstrdup(ptr noundef %110)
  store ptr %111, ptr %16, align 8
  %112 = load ptr, ptr %16, align 8
  %113 = call i64 @strlen(ptr noundef %112) #15
  %114 = trunc i64 %113 to i32
  store i32 %114, ptr %15, align 4
  %115 = load i32, ptr %11, align 4
  %116 = add nsw i32 %115, 1
  store i32 %116, ptr %11, align 4
  %117 = load ptr, ptr %16, align 8
  %118 = load i32, ptr %15, align 4
  %119 = icmp sgt i32 %118, 1
  br i1 %119, label %120, label %122

120:                                              ; preds = %108
  %121 = load i32, ptr %15, align 4
  br label %123

122:                                              ; preds = %108
  br label %123

123:                                              ; preds = %122, %120
  %124 = phi i32 [ %121, %120 ], [ 1, %122 ]
  %125 = sext i32 %124 to i64
  %126 = call i32 @xstrncasecmp(ptr noundef %117, ptr noundef @.str.48, i64 noundef %125)
  %127 = icmp ne i32 %126, 0
  br i1 %127, label %129, label %128

128:                                              ; preds = %123
  store i32 1, ptr %10, align 4
  br label %153

129:                                              ; preds = %123
  %130 = load ptr, ptr %16, align 8
  %131 = load i32, ptr %15, align 4
  %132 = icmp sgt i32 %131, 1
  br i1 %132, label %133, label %135

133:                                              ; preds = %129
  %134 = load i32, ptr %15, align 4
  br label %136

135:                                              ; preds = %129
  br label %136

136:                                              ; preds = %135, %133
  %137 = phi i32 [ %134, %133 ], [ 1, %135 ]
  %138 = sext i32 %137 to i64
  %139 = call i32 @xstrncasecmp(ptr noundef %130, ptr noundef @.str.49, i64 noundef %138)
  %140 = icmp ne i32 %139, 0
  br i1 %140, label %142, label %141

141:                                              ; preds = %136
  store i32 256, ptr %10, align 4
  br label %152

142:                                              ; preds = %136
  store i32 1, ptr @exit_code, align 4
  %143 = load i32, ptr @quiet_flag, align 4
  %144 = icmp ne i32 %143, 0
  br i1 %144, label %151, label %145

145:                                              ; preds = %142
  %146 = load ptr, ptr @stderr, align 8
  %147 = load ptr, ptr %16, align 8
  %148 = call i32 (ptr, ptr, ...) @fprintf(ptr noundef %146, ptr noundef @.str.50, ptr noundef %147) #12
  %149 = load ptr, ptr @stderr, align 8
  %150 = call i32 (ptr, ptr, ...) @fprintf(ptr noundef %149, ptr noundef @.str.51) #12
  br label %151

151:                                              ; preds = %145, %142
  call void @slurm_xfree(ptr noundef %9)
  call void @slurm_xfree(ptr noundef %16)
  store i32 1, ptr %14, align 4
  br label %154

152:                                              ; preds = %141
  br label %153

153:                                              ; preds = %152, %128
  call void @slurm_xfree(ptr noundef %16)
  store i32 0, ptr %14, align 4
  br label %154

154:                                              ; preds = %153, %151, %107
  call void @llvm.lifetime.end.p0(i64 8, ptr %17) #12
  call void @llvm.lifetime.end.p0(i64 8, ptr %16) #12
  call void @llvm.lifetime.end.p0(i64 4, ptr %15) #12
  %155 = load i32, ptr %14, align 4
  switch i32 %155, label %164 [
    i32 0, label %156
  ]

156:                                              ; preds = %154
  br label %157

157:                                              ; preds = %156, %79
  br label %158

158:                                              ; preds = %157, %78
  br label %159

159:                                              ; preds = %158, %38
  br label %160

160:                                              ; preds = %159
  %161 = load i32, ptr %12, align 4
  %162 = add nsw i32 %161, 1
  store i32 %162, ptr %12, align 4
  br label %21, !llvm.loop !25

163:                                              ; preds = %28
  store i32 0, ptr %14, align 4
  br label %164

164:                                              ; preds = %163, %154, %76
  call void @llvm.lifetime.end.p0(i64 4, ptr %12) #12
  %165 = load i32, ptr %14, align 4
  switch i32 %165, label %205 [
    i32 0, label %166
  ]

166:                                              ; preds = %164
  br label %167

167:                                              ; preds = %166, %3
  %168 = load i32, ptr %5, align 4
  %169 = load i32, ptr %11, align 4
  %170 = sub nsw i32 %168, %169
  %171 = icmp sgt i32 %170, 1
  br i1 %171, label %172, label %176

172:                                              ; preds = %167
  store i32 1, ptr @exit_code, align 4
  %173 = load ptr, ptr @stderr, align 8
  %174 = load ptr, ptr %4, align 8
  %175 = call i32 (ptr, ptr, ...) @fprintf(ptr noundef %173, ptr noundef @.str.52, ptr noundef %174) #12
  br label %196

176:                                              ; preds = %167
  %177 = load i32, ptr %5, align 4
  %178 = load i32, ptr %11, align 4
  %179 = sub nsw i32 %177, %178
  %180 = icmp slt i32 %179, 1
  br i1 %180, label %181, label %184

181:                                              ; preds = %176
  store i32 1, ptr @exit_code, align 4
  %182 = load ptr, ptr @stderr, align 8
  %183 = call i32 (ptr, ptr, ...) @fprintf(ptr noundef %182, ptr noundef @.str.53) #12
  br label %195

184:                                              ; preds = %176
  %185 = load ptr, ptr %6, align 8
  %186 = load i32, ptr %11, align 4
  %187 = sext i32 %186 to i64
  %188 = getelementptr inbounds ptr, ptr %185, i64 %187
  %189 = load ptr, ptr %188, align 8
  %190 = load i8, ptr %8, align 1, !range !21, !noundef !22
  %191 = trunc i8 %190 to i1
  %192 = load i32, ptr %10, align 4
  %193 = load ptr, ptr %9, align 8
  %194 = call i32 @scontrol_reboot_nodes(ptr noundef %189, i1 noundef zeroext %191, i32 noundef %192, ptr noundef %193)
  store i32 %194, ptr %7, align 4
  br label %195

195:                                              ; preds = %184, %181
  br label %196

196:                                              ; preds = %195, %172
  call void @slurm_xfree(ptr noundef %9)
  %197 = load i32, ptr %7, align 4
  %198 = icmp ne i32 %197, 0
  br i1 %198, label %199, label %204

199:                                              ; preds = %196
  store i32 1, ptr @exit_code, align 4
  %200 = load i32, ptr @quiet_flag, align 4
  %201 = icmp ne i32 %200, 1
  br i1 %201, label %202, label %203

202:                                              ; preds = %199
  call void @slurm_perror(ptr noundef @.str.54)
  br label %203

203:                                              ; preds = %202, %199
  br label %204

204:                                              ; preds = %203, %196
  store i32 0, ptr %14, align 4
  br label %205

205:                                              ; preds = %204, %164
  call void @llvm.lifetime.end.p0(i64 4, ptr %11) #12
  call void @llvm.lifetime.end.p0(i64 4, ptr %10) #12
  call void @llvm.lifetime.end.p0(i64 8, ptr %9) #12
  call void @llvm.lifetime.end.p0(i64 1, ptr %8) #12
  call void @llvm.lifetime.end.p0(i64 4, ptr %7) #12
  %206 = load i32, ptr %14, align 4
  switch i32 %206, label %208 [
    i32 0, label %207
    i32 1, label %207
  ]

207:                                              ; preds = %205, %205
  ret void

208:                                              ; preds = %205
  unreachable
}