; Function Attrs: nounwind uwtable
define dso_local void @_process_reboot_command(ptr noundef %0, i32 noundef %1, ptr noundef readonly captures(none) %2) local_unnamed_addr #8 {
  %4 = alloca ptr, align 8
  %5 = alloca ptr, align 8
  call void @llvm.lifetime.start.p0(i64 8, ptr nonnull %4) #18
  store ptr null, ptr %4, align 8
  %6 = icmp sgt i32 %1, 1
  br i1 %6, label %.preheader.preheader, label %.loopexit

.preheader.preheader:                             ; preds = %3
  %7 = add nsw i32 %1, -2
  %umin = tail call i32 @llvm.umin.i32(i32 %7, i32 2)
  %8 = add nuw nsw i32 %umin, 2
  %wide.trip.count = zext nneg i32 %8 to i64
  br label %.preheader

.preheader:                                       ; preds = %.preheader.preheader, %64
  %indvars.iv = phi i64 [ 1, %.preheader.preheader ], [ %indvars.iv.next, %64 ]
  %.198 = phi i1 [ false, %.preheader.preheader ], [ %.2, %64 ]
  %.14797 = phi i32 [ -2, %.preheader.preheader ], [ %.5, %64 ]
  %.15195 = phi i32 [ 1, %.preheader.preheader ], [ %.555, %64 ]
  %9 = getelementptr inbounds nuw ptr, ptr %2, i64 %indvars.iv
  %10 = load ptr, ptr %9, align 8
  %11 = call i32 @strcasecmp(ptr noundef %10, ptr noundef nonnull @.str.43) #23
  %.not = icmp eq i32 %11, 0
  br i1 %.not, label %12, label %14

12:                                               ; preds = %.preheader
  %13 = add nsw i32 %.15195, 1
  br label %64

14:                                               ; preds = %.preheader
  %15 = call i32 @xstrncasecmp(ptr noundef %10, ptr noundef nonnull @.str.44, i64 noundef 7) #18
  %.not60 = icmp eq i32 %15, 0
  %16 = load ptr, ptr %9, align 8
  br i1 %.not60, label %17, label %30

17:                                               ; preds = %14
  %18 = call ptr @strchr(ptr noundef nonnull dereferenceable(1) %16, i32 noundef 61) #23
  %.not61 = icmp eq ptr %18, null
  br i1 %.not61, label %22, label %19

19:                                               ; preds = %17
  %20 = getelementptr inbounds nuw i8, ptr %18, i64 1
  %21 = load i8, ptr %20, align 1
  %.not62 = icmp eq i8 %21, 0
  br i1 %.not62, label %22, label %.thread

22:                                               ; preds = %19, %17
  store i32 1, ptr @exit_code, align 4
  %23 = load i32, ptr @quiet_flag, align 4
  %.not63 = icmp eq i32 %23, 0
  br i1 %.not63, label %24, label %29

24:                                               ; preds = %22
  %25 = load ptr, ptr @stderr, align 8
  %26 = call i64 @fwrite(ptr nonnull @.str.45, i64 15, i64 1, ptr %25) #19
  br label %29

.thread:                                          ; preds = %19
  call void @slurm_xfree(ptr noundef nonnull %4) #18
  %27 = call ptr @xstrdup(ptr noundef nonnull %20) #18
  store ptr %27, ptr %4, align 8
  %28 = add nsw i32 %.15195, 1
  br label %64

29:                                               ; preds = %22, %24
  call void @slurm_xfree(ptr noundef nonnull %4) #18
  br label %.thread84

30:                                               ; preds = %14
  %31 = call i32 @xstrncasecmp(ptr noundef %16, ptr noundef nonnull @.str.46, i64 noundef 10) #18
  %.not64 = icmp eq i32 %31, 0
  br i1 %.not64, label %32, label %64

32:                                               ; preds = %30
  call void @llvm.lifetime.start.p0(i64 8, ptr nonnull %5) #18
  %33 = load ptr, ptr %9, align 8
  %34 = call ptr @strchr(ptr noundef nonnull dereferenceable(1) %33, i32 noundef 61) #23
  %.not65 = icmp eq ptr %34, null
  br i1 %.not65, label %38, label %35

35:                                               ; preds = %32
  %36 = getelementptr inbounds nuw i8, ptr %34, i64 1
  %37 = load i8, ptr %36, align 1
  %.not66 = icmp eq i8 %37, 0
  br i1 %.not66, label %38, label %43

38:                                               ; preds = %35, %32
  store i32 1, ptr @exit_code, align 4
  %39 = load i32, ptr @quiet_flag, align 4
  %.not67 = icmp eq i32 %39, 0
  br i1 %.not67, label %40, label %.thread79

40:                                               ; preds = %38
  %41 = load ptr, ptr @stderr, align 8
  %42 = call i64 @fwrite(ptr nonnull @.str.47, i64 14, i64 1, ptr %41) #19
  br label %.thread79

43:                                               ; preds = %35
  %44 = call ptr @xstrdup(ptr noundef nonnull %36) #18
  store ptr %44, ptr %5, align 8
  %45 = call i64 @strlen(ptr noundef nonnull dereferenceable(1) %44) #23
  %46 = trunc i64 %45 to i32
  %47 = add nsw i32 %.15195, 1
  %48 = call i32 @llvm.smax.i32(i32 %46, i32 1)
  %49 = zext nneg i32 %48 to i64
  %50 = call i32 @xstrncasecmp(ptr noundef nonnull %44, ptr noundef nonnull @.str.48, i64 noundef %49) #18
  %.not68 = icmp eq i32 %50, 0
  br i1 %.not68, label %63, label %51

51:                                               ; preds = %43
  %52 = load ptr, ptr %5, align 8
  %53 = call i32 @xstrncasecmp(ptr noundef %52, ptr noundef nonnull @.str.49, i64 noundef %49) #18
  %.not69 = icmp eq i32 %53, 0
  br i1 %.not69, label %63, label %54

54:                                               ; preds = %51
  store i32 1, ptr @exit_code, align 4
  %55 = load i32, ptr @quiet_flag, align 4
  %.not70 = icmp eq i32 %55, 0
  br i1 %.not70, label %56, label %62

56:                                               ; preds = %54
  %57 = load ptr, ptr @stderr, align 8
  %58 = load ptr, ptr %5, align 8
  %59 = call i32 (ptr, ptr, ...) @fprintf(ptr noundef %57, ptr noundef nonnull @.str.50, ptr noundef %58) #22
  %60 = load ptr, ptr @stderr, align 8
  %61 = call i64 @fwrite(ptr nonnull @.str.51, i64 27, i64 1, ptr %60) #19
  br label %62

62:                                               ; preds = %56, %54
  call void @slurm_xfree(ptr noundef nonnull %4) #18
  br label %.thread79

.thread79:                                        ; preds = %38, %40, %62
  %.sink = phi ptr [ %5, %62 ], [ %4, %40 ], [ %4, %38 ]
  call void @slurm_xfree(ptr noundef nonnull %.sink) #18
  call void @llvm.lifetime.end.p0(i64 8, ptr nonnull %5) #18
  br label %.thread84

63:                                               ; preds = %43, %51
  %.4 = phi i32 [ 1, %43 ], [ 256, %51 ]
  call void @slurm_xfree(ptr noundef nonnull %5) #18
  call void @llvm.lifetime.end.p0(i64 8, ptr nonnull %5) #18
  br label %64

64:                                               ; preds = %63, %.thread, %12, %30
  %.555 = phi i32 [ %.15195, %30 ], [ %47, %63 ], [ %13, %12 ], [ %28, %.thread ]
  %.5 = phi i32 [ %.14797, %30 ], [ %.4, %63 ], [ %.14797, %12 ], [ %.14797, %.thread ]
  %.2 = phi i1 [ %.198, %30 ], [ %.198, %63 ], [ true, %12 ], [ %.198, %.thread ]
  %indvars.iv.next = add nuw nsw i64 %indvars.iv, 1
  %exitcond = icmp eq i64 %indvars.iv.next, %wide.trip.count
  br i1 %exitcond, label %.loopexit, label %.preheader, !llvm.loop !24

.loopexit:                                        ; preds = %64, %3
  %.050 = phi i32 [ 1, %3 ], [ %.555, %64 ]
  %.046 = phi i32 [ -2, %3 ], [ %.5, %64 ]
  %.042 = phi i1 [ false, %3 ], [ %.2, %64 ]
  %65 = sub nsw i32 %1, %.050
  %66 = icmp sgt i32 %65, 1
  br i1 %66, label %67, label %70

67:                                               ; preds = %.loopexit
  store i32 1, ptr @exit_code, align 4
  %68 = load ptr, ptr @stderr, align 8
  %69 = call i32 (ptr, ptr, ...) @fprintf(ptr noundef %68, ptr noundef nonnull @.str.52, ptr noundef %0) #22
  br label %.critedge

70:                                               ; preds = %.loopexit
  %.not74 = icmp eq i32 %65, 1
  br i1 %.not74, label %74, label %71

71:                                               ; preds = %70
  store i32 1, ptr @exit_code, align 4
  %72 = load ptr, ptr @stderr, align 8
  %73 = call i64 @fwrite(ptr nonnull @.str.53, i64 42, i64 1, ptr %72) #19
  br label %.critedge

74:                                               ; preds = %70
  %75 = sext i32 %.050 to i64
  %76 = getelementptr inbounds ptr, ptr %2, i64 %75
  %77 = load ptr, ptr %76, align 8
  %78 = load ptr, ptr %4, align 8
  %79 = call i32 @scontrol_reboot_nodes(ptr noundef %77, i1 noundef zeroext %.042, i32 noundef %.046, ptr noundef %78) #18
  %80 = icmp eq i32 %79, 0
  call void @slurm_xfree(ptr noundef nonnull %4) #18
  br i1 %80, label %.thread84, label %81

81:                                               ; preds = %74
  store i32 1, ptr @exit_code, align 4
  %82 = load i32, ptr @quiet_flag, align 4
  %.not76 = icmp eq i32 %82, 1
  br i1 %.not76, label %.thread84, label %83

83:                                               ; preds = %81
  call void @slurm_perror(ptr noundef nonnull @.str.54) #18
  br label %.thread84

.critedge:                                        ; preds = %71, %67
  call void @slurm_xfree(ptr noundef nonnull %4) #18
  br label %.thread84

.thread84:                                        ; preds = %29, %.thread79, %74, %83, %81, %.critedge
  call void @llvm.lifetime.end.p0(i64 8, ptr nonnull %4) #18
  ret void
}